	.file	"ej24.c"
	.text
	.globl	sum
	.type	sum, @function
sum:
.LFB0:
	.cfi_startproc
	endbr64
	pushq	%rbp
	.cfi_def_cfa_offset 16
	.cfi_offset 6, -16
	movq	%rsp, %rbp
	.cfi_def_cfa_register 6
	movq	%rdi, -24(%rbp)
	movq	%rsi, -32(%rbp)
	movl	%edx, -36(%rbp)
	movl	$0, -4(%rbp)
	jmp	.L2
.L3:
	movl	-4(%rbp), %eax
	cltq
	leaq	0(,%rax,4), %rdx
	movq	-24(%rbp), %rax
	addq	%rdx, %rax
	movss	(%rax), %xmm1
	movl	-4(%rbp), %eax
	cltq
	leaq	0(,%rax,4), %rdx
	movq	-32(%rbp), %rax
	addq	%rdx, %rax
	movss	(%rax), %xmm0
	movl	-4(%rbp), %eax
	cltq
	leaq	0(,%rax,4), %rdx
	movq	-24(%rbp), %rax
	addq	%rdx, %rax
	addss	%xmm1, %xmm0
	movss	%xmm0, (%rax)
	addl	$1, -4(%rbp)
.L2:
	movl	-4(%rbp), %eax
	cmpl	-36(%rbp), %eax
	jl	.L3
	nop
	nop
	popq	%rbp
	.cfi_def_cfa 7, 8
	ret
	.cfi_endproc
.LFE0:
	.size	sum, .-sum
	.section	.rodata
.LC3:
	.string	"a[0]= %f, a[1]=%f, a[2]=%f\n"
	.text
	.globl	main
	.type	main, @function
main:
.LFB1:
	.cfi_startproc
	endbr64
	pushq	%rbp
	.cfi_def_cfa_offset 16
	.cfi_offset 6, -16
	movq	%rsp, %rbp
	.cfi_def_cfa_register 6
	subq	$48, %rsp
	movq	%fs:40, %rax
	movq	%rax, -8(%rbp)
	xorl	%eax, %eax
	movss	.LC0(%rip), %xmm0
	movss	%xmm0, -32(%rbp)
	movss	.LC1(%rip), %xmm0
	movss	%xmm0, -28(%rbp)
	movss	.LC2(%rip), %xmm0
	movss	%xmm0, -24(%rbp)
	movss	.LC0(%rip), %xmm0
	movss	%xmm0, -20(%rbp)
	movss	.LC1(%rip), %xmm0
	movss	%xmm0, -16(%rbp)
	movss	.LC2(%rip), %xmm0
	movss	%xmm0, -12(%rbp)
	movl	$3, -36(%rbp)
	movss	-24(%rbp), %xmm0
	pxor	%xmm1, %xmm1
	cvtss2sd	%xmm0, %xmm1
	movss	-28(%rbp), %xmm0
	cvtss2sd	%xmm0, %xmm0
	movss	-32(%rbp), %xmm2
	pxor	%xmm3, %xmm3
	cvtss2sd	%xmm2, %xmm3
	movq	%xmm3, %rax
	movapd	%xmm1, %xmm2
	movapd	%xmm0, %xmm1
	movq	%rax, %xmm0
	leaq	.LC3(%rip), %rax
	movq	%rax, %rdi
	movl	$3, %eax
	call	printf@PLT
	movl	$0, %eax
	movq	-8(%rbp), %rdx
	subq	%fs:40, %rdx
	je	.L6
	call	__stack_chk_fail@PLT
.L6:
	leave
	.cfi_def_cfa 7, 8
	ret
	.cfi_endproc
.LFE1:
	.size	main, .-main
	.section	.rodata
	.align 4
.LC0:
	.long	1065353216
	.align 4
.LC1:
	.long	1073741824
	.align 4
.LC2:
	.long	1080033280
	.ident	"GCC: (Ubuntu 13.3.0-6ubuntu2~24.04) 13.3.0"
	.section	.note.GNU-stack,"",@progbits
	.section	.note.gnu.property,"a"
	.align 8
	.long	1f - 0f
	.long	4f - 1f
	.long	5
0:
	.string	"GNU"
1:
	.align 8
	.long	0xc0000002
	.long	3f - 2f
2:
	.long	0x3
3:
	.align 8
4:
